target datalayout = "e-m:e-p270:32:32-p271:32:32-p272:64:64-i64:64-i128:128-f80:128-n8:16:32:64-S128"
target triple = "x86_64-unknown-linux-gnu"

%"class.EA::Thread::AtomicInt" = type { %"struct.std::atomic" }
%"struct.std::atomic" = type { %"struct.std::__atomic_base" }
%"struct.std::__atomic_base" = type { i32 }
%"class.EA::StdC::CallbackManager::CallbackVector" = type { ptr, ptr, ptr, [8 x ptr] }
%"class.EA::StdC::CallbackManager" = type { %"class.EA::StdC::ICallbackManager", %"class.EA::StdC::CallbackManager::CallbackVector", %"class.EA::StdC::Stopwatch", %"class.EA::Thread::AtomicInt.0", %"class.EA::Thread::AtomicInt.0", i8, i8, i8, %"class.EA::StdC::RandomLinearCongruential", double, i64, i64, i64, i64, %"class.EA::Thread::Mutex", %"class.EA::Thread::Thread", %"class.EA::Thread::AtomicInt", [4 x i8], %"struct.EA::Thread::ThreadParameters" }
%"class.EA::StdC::ICallbackManager" = type { ptr }
%"class.EA::StdC::Stopwatch" = type { i64, i64, i32, float }
%"class.EA::Thread::AtomicInt.0" = type { %"struct.std::atomic.1" }
%"struct.std::atomic.1" = type { %"struct.std::__atomic_base.2" }
%"struct.std::__atomic_base.2" = type { i64 }
%"class.EA::StdC::RandomLinearCongruential" = type { i32 }
%"class.EA::Thread::Mutex" = type { %struct.EAMutexData }
%struct.EAMutexData = type <{ %union.pthread_mutex_t, i32, [4 x i8] }>
%union.pthread_mutex_t = type { %struct.__pthread_mutex_s }
%struct.__pthread_mutex_s = type { i32, i32, i32, i32, i32, i16, i16, %struct.__pthread_internal_list }
%struct.__pthread_internal_list = type { ptr, ptr }
%"class.EA::Thread::Thread" = type { %struct.EAThreadData }
%struct.EAThreadData = type { ptr }
%"struct.EA::Thread::ThreadParameters" = type <{ ptr, i64, i32, i32, ptr, i64, i8, [7 x i8] }>

; Function Attrs: mustprogress nounwind uwtable
define linkonce_odr dso_local noundef i64 @_ZNSt13__atomic_baseIlEppEv(ptr noundef nonnull align 8 dereferenceable(8) %this) #1 comdat align 2 {
entry:
  %this.addr = alloca ptr, align 8
  %.atomictmp = alloca i64, align 8
  %atomic-temp = alloca i64, align 8
  store ptr %this, ptr %this.addr, align 8
  %this1 = load ptr, ptr %this.addr, align 8
  %_M_i = getelementptr inbounds %"struct.std::__atomic_base.2", ptr %this1, i32 0, i32 0
  store i64 1, ptr %.atomictmp, align 8
  %0 = load i64, ptr %.atomictmp, align 8
  %1 = atomicrmw add ptr %_M_i, i64 %0 seq_cst, align 8
  %2 = add i64 %1, %0
  store i64 %2, ptr %atomic-temp, align 8
  %3 = load i64, ptr %atomic-temp, align 8
  ret i64 %3
}

; Function Attrs: mustprogress nounwind uwtable
define linkonce_odr dso_local noundef i64 @_ZN2EA6Thread9AtomicIntIlEppEv(ptr noundef nonnull align 8 dereferenceable(8) %this) #1 comdat align 2 {
entry:
  %this.addr = alloca ptr, align 8
  store ptr %this, ptr %this.addr, align 8
  %this1 = load ptr, ptr %this.addr, align 8
  %mValue = getelementptr inbounds %"class.EA::Thread::AtomicInt.0", ptr %this1, i32 0, i32 0
  %call = call noundef i64 @_ZNSt13__atomic_baseIlEppEv(ptr noundef nonnull align 8 dereferenceable(8) %mValue) #10
  ret i64 %call
}

; Function Attrs: mustprogress uwtable
define dso_local void @_ZN2EA4StdC15CallbackManager11OnUserEventEv(ptr noundef nonnull align 8 dereferenceable(296) %this) unnamed_addr #2 align 2 {
entry:
  %this.addr = alloca ptr, align 8
  store ptr %this, ptr %this.addr, align 8
  %this1 = load ptr, ptr %this.addr, align 8
  %mThread = getelementptr inbounds %"class.EA::StdC::CallbackManager", ptr %this1, i32 0, i32 15
  %call = call noundef i32 @_ZNK2EA6Thread6Thread9GetStatusEPl(ptr noundef nonnull align 8 dereferenceable(8) %mThread, ptr noundef null)
  %cmp = icmp eq i32 %call, 1
  br i1 %cmp, label %if.then, label %if.end

if.then:                                          ; preds = %entry
  %mThread2 = getelementptr inbounds %"class.EA::StdC::CallbackManager", ptr %this1, i32 0, i32 15
  call void @_ZN2EA6Thread6Thread4WakeEv(ptr noundef nonnull align 8 dereferenceable(8) %mThread2)
  br label %if.end

if.end:                                           ; preds = %if.then, %entry
  %mUserEventCounter = getelementptr inbounds %"class.EA::StdC::CallbackManager", ptr %this1, i32 0, i32 4
  %call3 = call noundef i64 @_ZN2EA6Thread9AtomicIntIlEppEv(ptr noundef nonnull align 8 dereferenceable(8) %mUserEventCounter)
  ret void
}