; Function Attrs: mustprogress uwtable
define dso_local void @_ZN2EA4StdC15CallbackManager11OnUserEventEv(ptr noundef nonnull align 8 dereferenceable(296) %this) unnamed_addr #1 align 2 {
entry:
  %mThread = getelementptr inbounds i8, ptr %this, i64 232
  %call = tail call noundef i32 @_ZNK2EA6Thread6Thread9GetStatusEPl(ptr noundef nonnull align 8 dereferenceable(8) %mThread, ptr noundef null)
  %cmp = icmp eq i32 %call, 1
  br i1 %cmp, label %if.then, label %if.end

if.then:                                          ; preds = %entry
  tail call void @_ZN2EA6Thread6Thread4WakeEv(ptr noundef nonnull align 8 dereferenceable(8) %mThread)
  br label %if.end

if.end:                                           ; preds = %if.then, %entry
  %mUserEventCounter = getelementptr inbounds i8, ptr %this, i64 128
  %0 = atomicrmw add ptr %mUserEventCounter, i64 1 seq_cst, align 8
  ret void
}